target datalayout = "e-m:e-p270:32:32-p271:32:32-p272:64:64-i64:64-i128:128-f80:128-n8:16:32:64-S128"
target triple = "x86_64-pc-linux-gnu"

%struct._GtkTreeIter = type { i32, ptr, ptr, ptr }
%struct.display_data = type { i64, i32, ptr, i8, i32, ptr, ptr, ptr, ptr, ptr, ptr, ptr, ptr }

@.str.19 = private unnamed_addr constant [5 x i8] c"text\00", align 1

; Function Attrs: nounwind uwtable
define dso_local ptr @create_pulldown_combo(ptr noundef %0) #0 {
  %2 = alloca ptr, align 8
  %3 = alloca ptr, align 8
  %4 = alloca ptr, align 8
  %5 = alloca %struct._GtkTreeIter, align 8
  %6 = alloca ptr, align 8
  %7 = alloca i32, align 4
  store ptr %0, ptr %2, align 8
  call void @llvm.lifetime.start.p0(i64 8, ptr %3) #11
  store ptr null, ptr %3, align 8
  call void @llvm.lifetime.start.p0(i64 8, ptr %4) #11
  store ptr null, ptr %4, align 8
  call void @llvm.lifetime.start.p0(i64 32, ptr %5) #11
  call void @llvm.lifetime.start.p0(i64 8, ptr %6) #11
  store ptr null, ptr %6, align 8
  call void @llvm.lifetime.start.p0(i64 4, ptr %7) #11
  store i32 0, ptr %7, align 4
  %8 = call ptr (i32, ...) @gtk_list_store_new(i32 noundef 2, i64 noundef 24, i64 noundef 64)
  store ptr %8, ptr %3, align 8
  br label %9

9:                                                ; preds = %17, %1
  %10 = load ptr, ptr %2, align 8
  %11 = load i32, ptr %7, align 4
  %12 = sext i32 %11 to i64
  %13 = getelementptr inbounds %struct.display_data, ptr %10, i64 %12
  %14 = getelementptr inbounds nuw %struct.display_data, ptr %13, i32 0, i32 1
  %15 = load i32, ptr %14, align 8
  %16 = icmp ne i32 %15, -1
  br i1 %16, label %17, label %34

17:                                               ; preds = %9
  %18 = load ptr, ptr %3, align 8
  call void @gtk_list_store_append(ptr noundef %18, ptr noundef %5)
  %19 = load ptr, ptr %3, align 8
  %20 = load ptr, ptr %2, align 8
  %21 = load i32, ptr %7, align 4
  %22 = sext i32 %21 to i64
  %23 = getelementptr inbounds %struct.display_data, ptr %20, i64 %22
  %24 = getelementptr inbounds nuw %struct.display_data, ptr %23, i32 0, i32 1
  %25 = load i32, ptr %24, align 8
  %26 = load ptr, ptr %2, align 8
  %27 = load i32, ptr %7, align 4
  %28 = sext i32 %27 to i64
  %29 = getelementptr inbounds %struct.display_data, ptr %26, i64 %28
  %30 = getelementptr inbounds nuw %struct.display_data, ptr %29, i32 0, i32 2
  %31 = load ptr, ptr %30, align 8
  call void (ptr, ptr, ...) @gtk_list_store_set(ptr noundef %19, ptr noundef %5, i32 noundef 0, i32 noundef %25, i32 noundef 1, ptr noundef %31, i32 noundef -1)
  %32 = load i32, ptr %7, align 4
  %33 = add nsw i32 %32, 1
  store i32 %33, ptr %7, align 4
  br label %9, !llvm.loop !48

34:                                               ; preds = %9
  %35 = load ptr, ptr %3, align 8
  %36 = call i64 @gtk_tree_model_get_type() #12
  %37 = call ptr @g_type_check_instance_cast(ptr noundef %35, i64 noundef %36)
  %38 = call ptr @gtk_combo_box_new_with_model(ptr noundef %37)
  store ptr %38, ptr %4, align 8
  %39 = load ptr, ptr %3, align 8
  call void @g_object_unref(ptr noundef %39)
  %40 = call ptr @gtk_cell_renderer_text_new()
  store ptr %40, ptr %6, align 8
  %41 = load ptr, ptr %4, align 8
  %42 = call i64 @gtk_cell_layout_get_type() #12
  %43 = call ptr @g_type_check_instance_cast(ptr noundef %41, i64 noundef %42)
  %44 = load ptr, ptr %6, align 8
  call void @gtk_cell_layout_pack_start(ptr noundef %43, ptr noundef %44, i32 noundef 1)
  %45 = load ptr, ptr %4, align 8
  %46 = call i64 @gtk_cell_layout_get_type() #12
  %47 = call ptr @g_type_check_instance_cast(ptr noundef %45, i64 noundef %46)
  %48 = load ptr, ptr %6, align 8
  call void @gtk_cell_layout_add_attribute(ptr noundef %47, ptr noundef %48, ptr noundef @.str.19, i32 noundef 1)
  %49 = load ptr, ptr %4, align 8
  %50 = call i64 @gtk_combo_box_get_type() #12
  %51 = call ptr @g_type_check_instance_cast(ptr noundef %49, i64 noundef %50)
  call void @gtk_combo_box_set_active(ptr noundef %51, i32 noundef 0)
  %52 = load ptr, ptr %4, align 8
  call void @llvm.lifetime.end.p0(i64 4, ptr %7) #11
  call void @llvm.lifetime.end.p0(i64 8, ptr %6) #11
  call void @llvm.lifetime.end.p0(i64 32, ptr %5) #11
  call void @llvm.lifetime.end.p0(i64 8, ptr %4) #11
  call void @llvm.lifetime.end.p0(i64 8, ptr %3) #11
  ret ptr %52
}