; Function Attrs: nounwind uwtable
define dso_local ptr @create_pulldown_combo(ptr noundef readonly captures(none) %0) local_unnamed_addr #2 {
  %2 = alloca %struct._GtkTreeIter, align 8
  call void @llvm.lifetime.start.p0(i64 32, ptr nonnull %2) #16
  %3 = tail call ptr (i32, ...) @gtk_list_store_new(i32 noundef 2, i64 noundef 24, i64 noundef 64) #16
  %4 = getelementptr inbounds nuw i8, ptr %0, i64 8
  %5 = load i32, ptr %4, align 8
  %.not16 = icmp eq i32 %5, -1
  br i1 %.not16, label %._crit_edge, label %.lr.ph

.lr.ph:                                           ; preds = %1, %.lr.ph
  %indvars.iv = phi i64 [ %indvars.iv.next, %.lr.ph ], [ 0, %1 ]
  %6 = phi ptr [ %10, %.lr.ph ], [ %4, %1 ]
  call void @gtk_list_store_append(ptr noundef %3, ptr noundef nonnull %2) #16
  %7 = load i32, ptr %6, align 8
  %8 = getelementptr inbounds nuw %struct.display_data, ptr %0, i64 %indvars.iv, i32 2
  %9 = load ptr, ptr %8, align 8
  call void (ptr, ptr, ...) @gtk_list_store_set(ptr noundef %3, ptr noundef nonnull %2, i32 noundef 0, i32 noundef %7, i32 noundef 1, ptr noundef %9, i32 noundef -1) #16
  %indvars.iv.next = add nuw nsw i64 %indvars.iv, 1
  %10 = getelementptr inbounds nuw %struct.display_data, ptr %0, i64 %indvars.iv.next, i32 1
  %11 = load i32, ptr %10, align 8
  %.not = icmp eq i32 %11, -1
  br i1 %.not, label %._crit_edge, label %.lr.ph, !llvm.loop !46

._crit_edge:                                      ; preds = %.lr.ph, %1
  %12 = tail call i64 @gtk_tree_model_get_type() #17
  %13 = call ptr @g_type_check_instance_cast(ptr noundef %3, i64 noundef %12) #16
  %14 = call ptr @gtk_combo_box_new_with_model(ptr noundef %13) #16
  call void @g_object_unref(ptr noundef %3) #16
  %15 = call ptr @gtk_cell_renderer_text_new() #16
  %16 = tail call i64 @gtk_cell_layout_get_type() #17
  %17 = call ptr @g_type_check_instance_cast(ptr noundef %14, i64 noundef %16) #16
  call void @gtk_cell_layout_pack_start(ptr noundef %17, ptr noundef %15, i32 noundef 1) #16
  %18 = call ptr @g_type_check_instance_cast(ptr noundef %14, i64 noundef %16) #16
  call void @gtk_cell_layout_add_attribute(ptr noundef %18, ptr noundef %15, ptr noundef nonnull @.str.19, i32 noundef 1) #16
  %19 = tail call i64 @gtk_combo_box_get_type() #17
  %20 = call ptr @g_type_check_instance_cast(ptr noundef %14, i64 noundef %19) #16
  call void @gtk_combo_box_set_active(ptr noundef %20, i32 noundef 0) #16
  call void @llvm.lifetime.end.p0(i64 32, ptr nonnull %2) #16
  ret ptr %14
}